target datalayout = "e-m:e-p270:32:32-p271:32:32-p272:64:64-i64:64-i128:128-f80:128-n8:16:32:64-S128"
target triple = "x86_64-pc-linux-gnu"

%struct.EbucketsType = type { ptr, ptr, i32 }

@lazyfree_objects = internal global i64 0, align 8
@lazyfreed_objects = internal global i64 0, align 8
@hashExpireBucketsType = external global %struct.EbucketsType, align 8
@.str = private unnamed_addr constant [20 x i8] c"thread.tcache.flush\00", align 1

; Function Attrs: nounwind uwtable
define dso_local void @lazyfreeFreeDatabase(ptr noundef %0) #0 {
  %2 = alloca ptr, align 8
  %3 = alloca ptr, align 8
  %4 = alloca ptr, align 8
  %5 = alloca ptr, align 8
  %6 = alloca i64, align 8
  %7 = alloca i64, align 8
  %8 = alloca i64, align 8
  %9 = alloca i64, align 8
  %10 = alloca i64, align 8
  store ptr %0, ptr %2, align 8, !tbaa !5
  call void @llvm.lifetime.start.p0(i64 8, ptr %3) #7
  %11 = load ptr, ptr %2, align 8, !tbaa !5
  %12 = getelementptr inbounds ptr, ptr %11, i64 0
  %13 = load ptr, ptr %12, align 8, !tbaa !5
  store ptr %13, ptr %3, align 8, !tbaa !13
  call void @llvm.lifetime.start.p0(i64 8, ptr %4) #7
  %14 = load ptr, ptr %2, align 8, !tbaa !5
  %15 = getelementptr inbounds ptr, ptr %14, i64 1
  %16 = load ptr, ptr %15, align 8, !tbaa !5
  store ptr %16, ptr %4, align 8, !tbaa !13
  call void @llvm.lifetime.start.p0(i64 8, ptr %5) #7
  %17 = load ptr, ptr %2, align 8, !tbaa !5
  %18 = getelementptr inbounds ptr, ptr %17, i64 2
  %19 = load ptr, ptr %18, align 8, !tbaa !5
  store ptr %19, ptr %5, align 8, !tbaa !5
  call void @ebDestroy(ptr noundef %5, ptr noundef @hashExpireBucketsType, ptr noundef null)
  call void @llvm.lifetime.start.p0(i64 8, ptr %6) #7
  %20 = load ptr, ptr %3, align 8, !tbaa !13
  %21 = call i64 @kvstoreSize(ptr noundef %20)
  store i64 %21, ptr %6, align 8, !tbaa !11
  %22 = load ptr, ptr %3, align 8, !tbaa !13
  call void @kvstoreRelease(ptr noundef %22)
  %23 = load ptr, ptr %4, align 8, !tbaa !13
  call void @kvstoreRelease(ptr noundef %23)
  %24 = load i64, ptr %6, align 8, !tbaa !11
  store i64 %24, ptr %7, align 8, !tbaa !11
  %25 = load i64, ptr %7, align 8
  %26 = atomicrmw sub ptr @lazyfree_objects, i64 %25 monotonic, align 8
  store i64 %26, ptr %8, align 8
  %27 = load i64, ptr %6, align 8, !tbaa !11
  store i64 %27, ptr %9, align 8, !tbaa !11
  %28 = load i64, ptr %9, align 8
  %29 = atomicrmw add ptr @lazyfreed_objects, i64 %28 monotonic, align 8
  store i64 %29, ptr %10, align 8
  %30 = call i32 @je_mallctl(ptr noundef @.str, ptr noundef null, ptr noundef null, ptr noundef null, i64 noundef 0) #7
  %31 = call i32 @jemalloc_purge()
  call void @llvm.lifetime.end.p0(i64 8, ptr %6) #7
  call void @llvm.lifetime.end.p0(i64 8, ptr %5) #7
  call void @llvm.lifetime.end.p0(i64 8, ptr %4) #7
  call void @llvm.lifetime.end.p0(i64 8, ptr %3) #7
  ret void
}