; Function Attrs: nounwind uwtable
define dso_local void @lazyfreeFreeDatabase(ptr noundef readonly captures(none) %0) #0 {
  %2 = alloca ptr, align 8
  %3 = load ptr, ptr %0, align 8, !tbaa !5
  %4 = getelementptr inbounds nuw i8, ptr %0, i64 8
  %5 = load ptr, ptr %4, align 8, !tbaa !5
  call void @llvm.lifetime.start.p0(i64 8, ptr nonnull %2) #6
  %6 = getelementptr inbounds nuw i8, ptr %0, i64 16
  %7 = load ptr, ptr %6, align 8, !tbaa !5
  store ptr %7, ptr %2, align 8, !tbaa !5
  call void @ebDestroy(ptr noundef nonnull %2, ptr noundef nonnull @hashExpireBucketsType, ptr noundef null) #6
  %8 = call i64 @kvstoreSize(ptr noundef %3) #6
  call void @kvstoreRelease(ptr noundef %3) #6
  call void @kvstoreRelease(ptr noundef %5) #6
  %9 = atomicrmw sub ptr @lazyfree_objects, i64 %8 monotonic, align 8
  %10 = atomicrmw add ptr @lazyfreed_objects, i64 %8 monotonic, align 8
  %11 = call i32 @je_mallctl(ptr noundef nonnull @.str, ptr noundef null, ptr noundef null, ptr noundef null, i64 noundef 0) #6
  %12 = call i32 @jemalloc_purge() #6
  call void @llvm.lifetime.end.p0(i64 8, ptr nonnull %2) #6
  ret void
}